(dp0
S'cookies'
p1
(dp2
S'wxloadtime'
p3
S'1498150627_expired'
p4
sS'webwx_data_ticket'
p5
S'gSfYkR68+y7KGF5V5SsumV2p'
p6
sS'wxuin'
p7
S'3129380160'
p8
sS'login_frequency'
p9
S'2'
p10
sS'MM_WX_NOTIFY_STATE'
p11
S'1'
p12
sS'MM_WX_SOUND_STATE'
p13
g12
sS'webwx_auth_ticket'
p14
S'CIsBELCV+4AIGoABGVyAisOdWNWH/pP6rVrfB8ccicDjAYv19YKI6BJYJ3Dyd2ktaERyDon5eqQyzBj4LaWux4gpC1AXjtOm61gnaVRqE+24ElRx6mU7RUk7KkJqZ/SCL7/U79c3AigiYvtiDdrmo1AxxuakOsUCkIpbTxsww6EoRfNBxTpfYBHaYlI='
p15
sS'last_wxuin'
p16
S'3129380160'
p17
sS'webwxuvid'
p18
S'464c92e12a136bae258502559baa5e0482d29a59554f5e54a5619e2866f08773534a7c95d2b77aa4677e364fb3b668f7'
p19
sS'wxpluginkey'
p20
S'1498144447'
p21
sS'wxsid'
p22
S'ENaZQqHypfM1HVyk'
p23
sS'mm_lang'
p24
S'zh_CN'
p25
ssS'version'
p26
S'1.3.6'
p27
sS'storage'
p28
(dp29
S'userName'
p30
V@42edd2af9dc46df46ae759229c6eaa2d8688d87a4d8b8c97aaa4d4e333926df1
p31
sS'lastInputUserName'
p32
NsS'memberList'
p33
ccopy_reg
_reconstructor
p34
(citchat.storage.templates
ContactList
p35
c__builtin__
list
p36
(lp37
g34
(citchat.storage.templates
User
p38
c__builtin__
dict
p39
(dp40
S'UserName'
p41
g31
sS'City'
p42
S''
p43
sS'DisplayName'
p44
g43
sS'UniFriend'
p45
I0
sS'OwnerUin'
p46
I0
sS'MemberList'
p47
g34
(g35
g36
(lp48
tp49
Rp50
I1
bsS'PYQuanPin'
p51
V
p52
sS'RemarkPYInitial'
p53
g52
sS'Uin'
p54
I3129380160
sS'AppAccountFlag'
p55
I0
sS'VerifyFlag'
p56
I0
sS'Province'
p57
g43
sS'KeyWord'
p58
g43
sS'RemarkName'
p59
g52
sS'PYInitial'
p60
g52
sS'ChatRoomId'
p61
I0
sS'HideInputBarFlag'
p62
I0
sVHeadImgFlag
p63
I1
sS'EncryChatRoomId'
p64
g43
sS'AttrStatus'
p65
I0
sS'SnsFlag'
p66
I1
sS'MemberCount'
p67
I0
sVWebWxPluginSwitch
p68
I0
sS'Alias'
p69
g43
sS'Signature'
p70
g52
sS'ContactFlag'
p71
I0
sS'NickName'
p72
V\u80e1\u563f\u563f
p73
sS'RemarkPYQuanPin'
p74
g52
sS'HeadImgUrl'
p75
V/cgi-bin/mmwebwx-bin/webwxgeticon?seq=1231103728&username=@42edd2af9dc46df46ae759229c6eaa2d8688d87a4d8b8c97aaa4d4e333926df1&skey=@crypt_caef61c6_154db8e9b445df1765640541bb3f5c68
p76
sS'Sex'
p77
I0
sS'StarFriend'
p78
I0
sS'Statues'
p79
I0
stp80
Rp81
I1
bag34
(g38
g39
(dp82
VUserName
p83
V@adf975ae17e88f5c444177d051541cd2
p84
sVCity
p85
g52
sVSnsFlag
p86
I49
sVDisplayName
p87
g52
sVUniFriend
p88
I0
sVMemberCount
p89
I0
sVOwnerUin
p90
I0
sVMemberList
p91
g50
sVAlias
p92
g52
sVPYQuanPin
p93
Vspanclassemojiemoji1f300spanxinyaoxiaotuzispanclassemojiemoji1f390span
p94
sVSignature
p95
V\u5e76\u6ca1\u6709\u5982\u679c\uff0c\u000a\u53ea\u6709\u7ed3\u679c\u548c\u540e\u679c\u3002
p96
sVRemarkPYInitial
p97
VXBTBYB
p98
sVContactFlag
p99
I3
sVUin
p100
I0
sVNickName
p101
V\U0001f300 \u8a2b\u9205\u5c0f\u5154\u5b50\U0001f390
p102
sVAppAccountFlag
p103
I0
sVVerifyFlag
p104
I0
sVRemarkPYQuanPin
p105
Vxiaobaitubaiyoubai
p106
sVHeadImgUrl
p107
V/cgi-bin/mmwebwx-bin/webwxgeticon?seq=619434688&username=@adf975ae17e88f5c444177d051541cd2&skey=@crypt_caef61c6_154db8e9b445df1765640541bb3f5c68
p108
sVKeyWord
p109
Vxin
p110
sVProvince
p111
g52
sVPYInitial
p112
VSPANCLASSEMOJIEMOJI1F300SPANXYXTZSPANCLASSEMOJIEMOJI1F390SPAN
p113
sVRemarkName
p114
V\u5c0f\u767d\u5154\u767d\u53c8\u767d
p115
sVStarFriend
p116
I0
sVSex
p117
I2
sVIsOwner
p118
I0
sVHideInputBarFlag
p119
I0
sVChatRoomId
p120
I0
sVEncryChatRoomId
p121
g52
sVAttrStatus
p122
I72807
sVStatues
p123
I0
stp124
Rp125
I1
bag34
(g38
g39
(dp126
VUserName
p127
V@412005378f958332b45766a6ec688a5385ff15ce846c2d4326ac738b0ca71a02
p128
sVCity
p129
V\u6d77\u6dc0
p130
sVSnsFlag
p131
I17
sVDisplayName
p132
g52
sVUniFriend
p133
I0
sVMemberCount
p134
I0
sVOwnerUin
p135
I0
sVMemberList
p136
g50
sVAlias
p137
g52
sVPYQuanPin
p138
VSharonspanclassemojiemoji1f343span
p139
sVSignature
p140
V\u8fd0\u52a8\u548c\u7075\u9b42\uff0c\u603b\u8981\u6709\u4e00\u4e2a\u8d70\u5728\u8def\u4e0a
p141
sVRemarkPYInitial
p142
VSHARONSPANCLASSEMOJIEMOJI1F343SPAN524684
p143
sVContactFlag
p144
I3
sVUin
p145
I0
sVNickName
p146
VSharon\U0001f343
p147
sVAppAccountFlag
p148
I0
sVVerifyFlag
p149
I0
sVRemarkPYQuanPin
p150
VSharonspanclassemojiemoji1f343span524684
p151
sVHeadImgUrl
p152
V/cgi-bin/mmwebwx-bin/webwxgeticon?seq=619432817&username=@412005378f958332b45766a6ec688a5385ff15ce846c2d4326ac738b0ca71a02&skey=@crypt_caef61c6_154db8e9b445df1765640541bb3f5c68
p153
sVKeyWord
p154
g52
sVProvince
p155
V\u5317\u4eac
p156
sVPYInitial
p157
VSHARONSPANCLASSEMOJIEMOJI1F343SPAN
p158
sVRemarkName
p159
VSharon\U0001f343  524684
p160
sVStarFriend
p161
I0
sVSex
p162
I2
sVIsOwner
p163
I0
sVHideInputBarFlag
p164
I0
sVChatRoomId
p165
I0
sVEncryChatRoomId
p166
g52
sVAttrStatus
p167
I100605
sVStatues
p168
I0
stp169
Rp170
I1
bag34
(g38
g39
(dp171
VUserName
p172
V@0214f143e8604b8191fb928c58b1c7ce
p173
sVCity
p174
V\u5357\u660c
p175
sVSnsFlag
p176
I17
sVDisplayName
p177
g52
sVUniFriend
p178
I0
sVMemberCount
p179
I0
sVOwnerUin
p180
I0
sVMemberList
p181
g50
sVAlias
p182
g52
sVPYQuanPin
p183
Vhuchengcheng
p184
sVSignature
p185
g52
sVRemarkPYInitial
p186
g52
sVContactFlag
p187
I3
sVUin
p188
I0
sVNickName
p189
V\u80e1\u8bda\u8bda
p190
sVAppAccountFlag
p191
I0
sVVerifyFlag
p192
I0
sVRemarkPYQuanPin
p193
g52
sVHeadImgUrl
p194
V/cgi-bin/mmwebwx-bin/webwxgeticon?seq=619430191&username=@0214f143e8604b8191fb928c58b1c7ce&skey=@crypt_caef61c6_154db8e9b445df1765640541bb3f5c68
p195
sVKeyWord
p196
VI_h
p197
sVProvince
p198
V\u6c5f\u897f
p199
sVPYInitial
p200
VHCC
p201
sVRemarkName
p202
g52
sVStarFriend
p203
I0
sVSex
p204
I1
sVIsOwner
p205
I0
sVHideInputBarFlag
p206
I0
sVChatRoomId
p207
I0
sVEncryChatRoomId
p208
g52
sVAttrStatus
p209
I4300903
sVStatues
p210
I0
stp211
Rp212
I1
bag34
(g38
g39
(dp213
VUserName
p214
V@7775537f40ed0ddc96d4de36a65c2b44c52b79cabbb5e3cf907862efadd9b046
p215
sVCity
p216
V\u7518\u5b5c
p217
sVSnsFlag
p218
I17
sVDisplayName
p219
g52
sVUniFriend
p220
I0
sVMemberCount
p221
I0
sVOwnerUin
p222
I0
sVMemberList
p223
g50
sVAlias
p224
g52
sVPYQuanPin
p225
Vsui
p226
sVSignature
p227
V\u772d\u867e\u867e\uff0c\u87f9\u87f9
p228
sVRemarkPYInitial
p229
VS549299
p230
sVContactFlag
p231
I1
sVUin
p232
I0
sVNickName
p233
V\u772d
p234
sVAppAccountFlag
p235
I0
sVVerifyFlag
p236
I0
sVRemarkPYQuanPin
p237
Vsui549299
p238
sVHeadImgUrl
p239
V/cgi-bin/mmwebwx-bin/webwxgeticon?seq=619430436&username=@7775537f40ed0ddc96d4de36a65c2b44c52b79cabbb5e3cf907862efadd9b046&skey=@crypt_caef61c6_154db8e9b445df1765640541bb3f5c68
p240
sVKeyWord
p241
g52
sVProvince
p242
V\u56db\u5ddd
p243
sVPYInitial
p244
VS
p245
sVRemarkName
p246
V\u772d 549299
p247
sVStarFriend
p248
I0
sVSex
p249
I2
sVIsOwner
p250
I0
sVHideInputBarFlag
p251
I0
sVChatRoomId
p252
I0
sVEncryChatRoomId
p253
g52
sVAttrStatus
p254
I105255
sVStatues
p255
I0
stp256
Rp257
I1
bag34
(g38
g39
(dp258
VUserName
p259
V@1c2086ea7d4582c4dfe328f203f4f951eda0b8adb1f8d147c03f314fd7291d6e
p260
sVCity
p261
V\u4e30\u53f0
p262
sVSnsFlag
p263
I17
sVDisplayName
p264
g52
sVUniFriend
p265
I0
sVMemberCount
p266
I0
sVOwnerUin
p267
I0
sVMemberList
p268
g50
sVAlias
p269
g52
sVPYQuanPin
p270
Vwuyuchenchenspanclassemojiemoji1f353span
p271
sVSignature
p272
g52
sVRemarkPYInitial
p273
VWYCCSPANCLASSEMOJIEMOJI1F353SPAN4094122
p274
sVContactFlag
p275
I3
sVUin
p276
I0
sVNickName
p277
V\u5434\u96e8\u5bb8\u5bb8\U0001f353
p278
sVAppAccountFlag
p279
I0
sVVerifyFlag
p280
I0
sVRemarkPYQuanPin
p281
Vwuyuchenchenspanclassemojiemoji1f353span4094122
p282
sVHeadImgUrl
p283
V/cgi-bin/mmwebwx-bin/webwxgeticon?seq=619431984&username=@1c2086ea7d4582c4dfe328f203f4f951eda0b8adb1f8d147c03f314fd7291d6e&skey=@crypt_caef61c6_154db8e9b445df1765640541bb3f5c68
p284
sVKeyWord
p285
g52
sVProvince
p286
V\u5317\u4eac
p287
sVPYInitial
p288
VWYCCSPANCLASSEMOJIEMOJI1F353SPAN
p289
sVRemarkName
p290
V\u5434\u96e8\u5bb8\u5bb8\U0001f353  4094122
p291
sVStarFriend
p292
I0
sVSex
p293
I2
sVIsOwner
p294
I0
sVHideInputBarFlag
p295
I0
sVChatRoomId
p296
I0
sVEncryChatRoomId
p297
g52
sVAttrStatus
p298
I102437
sVStatues
p299
I0
stp300
Rp301
I1
bag34
(g38
g39
(dp302
VUserName
p303
V@9b502a27b1f0120a38e04039f0d5fe4e967f42c3921a96d3493a76b33bb2ef70
p304
sVCity
p305
g52
sVSnsFlag
p306
I1
sVDisplayName
p307
g52
sVUniFriend
p308
I0
sVMemberCount
p309
I0
sVOwnerUin
p310
I0
sVMemberList
p311
g50
sVAlias
p312
g52
sVPYQuanPin
p313
Vzuzong
p314
sVSignature
p315
V\u9b54
p316
sVRemarkPYInitial
p317
VZZSPANCLASSEMOJIEMOJI1F42FSPAN431521
p318
sVContactFlag
p319
I3
sVUin
p320
I0
sVNickName
p321
V\u7956\u5b97\u3002
p322
sVAppAccountFlag
p323
I0
sVVerifyFlag
p324
I0
sVRemarkPYQuanPin
p325
Vzuzongspanclassemojiemoji1f42fspan431521
p326
sVHeadImgUrl
p327
V/cgi-bin/mmwebwx-bin/webwxgeticon?seq=619430765&username=@9b502a27b1f0120a38e04039f0d5fe4e967f42c3921a96d3493a76b33bb2ef70&skey=@crypt_caef61c6_154db8e9b445df1765640541bb3f5c68
p328
sVKeyWord
p329
g52
sVProvince
p330
VZurich
p331
sVPYInitial
p332
VZZ
p333
sVRemarkName
p334
V\u7956\u5b97\U0001f42f \u3002   431521
p335
sVStarFriend
p336
I0
sVSex
p337
I2
sVIsOwner
p338
I0
sVHideInputBarFlag
p339
I0
sVChatRoomId
p340
I0
sVEncryChatRoomId
p341
g52
sVAttrStatus
p342
I4221
sVStatues
p343
I0
stp344
Rp345
I1
bag34
(g38
g39
(dp346
VUserName
p347
V@183179091f5d331e91cf457d8784947d
p348
sVCity
p349
g52
sVSnsFlag
p350
I49
sVDisplayName
p351
g52
sVUniFriend
p352
I0
sVMemberCount
p353
I0
sVOwnerUin
p354
I0
sVMemberList
p355
g50
sVAlias
p356
g52
sVPYQuanPin
p357
Vwoqunimiaogedatoumao
p358
sVSignature
p359
V\u7f8e\u77b3\u79c1\u6233\u3011\u5fc3\u91cc\u6709\u5ea7\u575f\uff0c\u846c\u7740\u672a\u4ea1\u4eba\u3002
p360
sVRemarkPYInitial
p361
VWQNMGDTM3802656
p362
sVContactFlag
p363
I3
sVUin
p364
I0
sVNickName
p365
V\u6211\u53bb\u4f60\u55b5\u4e2a\u5927\u5934\u732b
p366
sVAppAccountFlag
p367
I0
sVVerifyFlag
p368
I0
sVRemarkPYQuanPin
p369
Vwoqunimiaogedatoumao3802656
p370
sVHeadImgUrl
p371
V/cgi-bin/mmwebwx-bin/webwxgeticon?seq=619434222&username=@183179091f5d331e91cf457d8784947d&skey=@crypt_caef61c6_154db8e9b445df1765640541bb3f5c68
p372
sVKeyWord
p373
Vemi
p374
sVProvince
p375
g52
sVPYInitial
p376
VWQNMGDTM
p377
sVRemarkName
p378
V\u6211\u53bb\u4f60\u55b5\u4e2a\u5927\u5934\u732b  3802656
p379
sVStarFriend
p380
I0
sVSex
p381
I2
sVIsOwner
p382
I0
sVHideInputBarFlag
p383
I0
sVChatRoomId
p384
I0
sVEncryChatRoomId
p385
g52
sVAttrStatus
p386
I232447
sVStatues
p387
I0
stp388
Rp389
I1
bag34
(g38
g39
(dp390
VUserName
p391
V@4b19808269ad2111bcb751df6b2381c08d6f7a940e21474958bba935caaa435e
p392
sVCity
p393
g52
sVSnsFlag
p394
I49
sVDisplayName
p395
g52
sVUniFriend
p396
I0
sVMemberCount
p397
I0
sVOwnerUin
p398
I0
sVMemberList
p399
g50
sVAlias
p400
g52
sVPYQuanPin
p401
VSaltspanclassemojiemoji1f423span
p402
sVSignature
p403
V\u5431
p404
sVRemarkPYInitial
p405
VSALTSPANCLASSEMOJIEMOJI1F423SPAN399394
p406
sVContactFlag
p407
I3
sVUin
p408
I0
sVNickName
p409
VSalt\U0001f423
p410
sVAppAccountFlag
p411
I0
sVVerifyFlag
p412
I0
sVRemarkPYQuanPin
p413
VSaltspanclassemojiemoji1f423span399394
p414
sVHeadImgUrl
p415
V/cgi-bin/mmwebwx-bin/webwxgeticon?seq=619434800&username=@4b19808269ad2111bcb751df6b2381c08d6f7a940e21474958bba935caaa435e&skey=@crypt_caef61c6_154db8e9b445df1765640541bb3f5c68
p416
sVKeyWord
p417
g52
sVProvince
p418
g52
sVPYInitial
p419
VSALTSPANCLASSEMOJIEMOJI1F423SPAN
p420
sVRemarkName
p421
VSalt\U0001f423 399394
p422
sVStarFriend
p423
I0
sVSex
p424
I2
sVIsOwner
p425
I0
sVHideInputBarFlag
p426
I0
sVChatRoomId
p427
I0
sVEncryChatRoomId
p428
g52
sVAttrStatus
p429
I229733
sVStatues
p430
I0
stp431
Rp432
I1
bag34
(g38
g39
(dp433
VUserName
p434
V@4fce57a74cb388c8d8bc3d99e69b6803
p435
sVCity
p436
V\u671d\u9633
p437
sVSnsFlag
p438
I49
sVDisplayName
p439
g52
sVUniFriend
p440
I0
sVMemberCount
p441
I0
sVOwnerUin
p442
I0
sVMemberList
p443
g50
sVAlias
p444
g52
sVPYQuanPin
p445
Vxiaobaige
p446
sVSignature
p447
g52
sVRemarkPYInitial
p448
VXBG270255
p449
sVContactFlag
p450
I1
sVUin
p451
I0
sVNickName
p452
V\u5c0f\u767d\u54e5
p453
sVAppAccountFlag
p454
I0
sVVerifyFlag
p455
I0
sVRemarkPYQuanPin
p456
Vxiaobaige270255
p457
sVHeadImgUrl
p458
V/cgi-bin/mmwebwx-bin/webwxgeticon?seq=619430029&username=@4fce57a74cb388c8d8bc3d99e69b6803&skey=@crypt_caef61c6_154db8e9b445df1765640541bb3f5c68
p459
sVKeyWord
p460
Vqq7
p461
sVProvince
p462
V\u5317\u4eac
p463
sVPYInitial
p464
VXBG
p465
sVRemarkName
p466
V\u5c0f\u767d\u54e5 270255
p467
sVStarFriend
p468
I0
sVSex
p469
I2
sVIsOwner
p470
I0
sVHideInputBarFlag
p471
I0
sVChatRoomId
p472
I0
sVEncryChatRoomId
p473
g52
sVAttrStatus
p474
I110711
sVStatues
p475
I0
stp476
Rp477
I1
bag34
(g38
g39
(dp478
VUserName
p479
V@7772d006ecf4e7019474d5a6e1de2472fe427681813ce709f9f10125d7e891ac
p480
sVCity
p481
g52
sVSnsFlag
p482
I49
sVDisplayName
p483
g52
sVUniFriend
p484
I0
sVMemberCount
p485
I0
sVOwnerUin
p486
I0
sVMemberList
p487
g50
sVAlias
p488
g52
sVPYQuanPin
p489
Vspanclassemojiemoji1f451span
p490
sVSignature
p491
g52
sVRemarkPYInitial
p492
VSPANCLASSEMOJIEMOJI1F451SPAN416825
p493
sVContactFlag
p494
I1
sVUin
p495
I0
sVNickName
p496
V\U0001f451
p497
sVAppAccountFlag
p498
I0
sVVerifyFlag
p499
I0
sVRemarkPYQuanPin
p500
Vspanclassemojiemoji1f451span416825
p501
sVHeadImgUrl
p502
V/cgi-bin/mmwebwx-bin/webwxgeticon?seq=619430066&username=@7772d006ecf4e7019474d5a6e1de2472fe427681813ce709f9f10125d7e891ac&skey=@crypt_caef61c6_154db8e9b445df1765640541bb3f5c68
p503
sVKeyWord
p504
g52
sVProvince
p505
V\u5317\u4eac
p506
sVPYInitial
p507
VSPANCLASSEMOJIEMOJI1F451SPAN
p508
sVRemarkName
p509
V\U0001f451 416825
p510
sVStarFriend
p511
I0
sVSex
p512
I2
sVIsOwner
p513
I0
sVHideInputBarFlag
p514
I0
sVChatRoomId
p515
I0
sVEncryChatRoomId
p516
g52
sVAttrStatus
p517
I104121
sVStatues
p518
I0
stp519
Rp520
I1
bag34
(g38
g39
(dp521
VUserName
p522
V@a041822573aa713fcf74fd9984099574
p523
sVCity
p524
V\u671d\u9633
p525
sVSnsFlag
p526
I17
sVDisplayName
p527
g52
sVUniFriend
p528
I0
sVMemberCount
p529
I0
sVOwnerUin
p530
I0
sVMemberList
p531
g50
sVAlias
p532
g52
sVPYQuanPin
p533
VFFspanclassemojiemoji1f4a4span
p534
sVSignature
p535
g52
sVRemarkPYInitial
p536
VFFSPANCLASSEMOJIEMOJI1F4A4SPAN536217
p537
sVContactFlag
p538
I1
sVUin
p539
I0
sVNickName
p540
VFF\U0001f4a4
p541
sVAppAccountFlag
p542
I0
sVVerifyFlag
p543
I0
sVRemarkPYQuanPin
p544
VFFspanclassemojiemoji1f4a4span536217
p545
sVHeadImgUrl
p546
V/cgi-bin/mmwebwx-bin/webwxgeticon?seq=619430130&username=@a041822573aa713fcf74fd9984099574&skey=@crypt_caef61c6_154db8e9b445df1765640541bb3f5c68
p547
sVKeyWord
p548
Vlon
p549
sVProvince
p550
V\u5317\u4eac
p551
sVPYInitial
p552
VFFSPANCLASSEMOJIEMOJI1F4A4SPAN
p553
sVRemarkName
p554
VFF\U0001f4a4  536217
p555
sVStarFriend
p556
I0
sVSex
p557
I2
sVIsOwner
p558
I0
sVHideInputBarFlag
p559
I0
sVChatRoomId
p560
I0
sVEncryChatRoomId
p561
g52
sVAttrStatus
p562
I2147588135
sVStatues
p563
I0
stp564
Rp565
I1
bag34
(g38
g39
(dp566
VUserName
p567
V@02d98f37b5b109253e1b8841b957586e52df99085550fa547e9e09b6a2ada266
p568
sVCity
p569
V\u6d77\u6dc0
p570
sVSnsFlag
p571
I17
sVDisplayName
p572
g52
sVUniFriend
p573
I0
sVMemberCount
p574
I0
sVOwnerUin
p575
I0
sVMemberList
p576
g50
sVAlias
p577
g52
sVPYQuanPin
p578
Vspanclassemojiemoji1f531spanspanclassemojiemoji1f433spanYeah
p579
sVSignature
p580
V\u4eba\u751f\u5c31\u8fd9\u70b9\u513f\uff0c\u4e0d\u6298\u817e\u62ff\u4ec0\u4e48\u56de\u5fc6\uff01
p581
sVRemarkPYInitial
p582
VSPANCLASSEMOJIEMOJI1F531SPANSPANCLASSEMOJIEMOJI1F433SPANYEAH3912711
p583
sVContactFlag
p584
I1
sVUin
p585
I0
sVNickName
p586
V\U0001f531\U0001f433Yeah
p587
sVAppAccountFlag
p588
I0
sVVerifyFlag
p589
I0
sVRemarkPYQuanPin
p590
Vspanclassemojiemoji1f531spanspanclassemojiemoji1f433spanYeah3912711
p591
sVHeadImgUrl
p592
V/cgi-bin/mmwebwx-bin/webwxgeticon?seq=619437603&username=@02d98f37b5b109253e1b8841b957586e52df99085550fa547e9e09b6a2ada266&skey=@crypt_caef61c6_154db8e9b445df1765640541bb3f5c68
p593
sVKeyWord
p594
g52
sVProvince
p595
V\u5317\u4eac
p596
sVPYInitial
p597
VSPANCLASSEMOJIEMOJI1F531SPANSPANCLASSEMOJIEMOJI1F433SPANYEAH
p598
sVRemarkName
p599
V\U0001f531\U0001f433Yeah   3912711
p600
sVStarFriend
p601
I0
sVSex
p602
I2
sVIsOwner
p603
I0
sVHideInputBarFlag
p604
I0
sVChatRoomId
p605
I0
sVEncryChatRoomId
p606
g52
sVAttrStatus
p607
I233511
sVStatues
p608
I0
stp609
Rp610
I1
bag34
(g38
g39
(dp611
VUserName
p612
V@b831d34994a708dd87b3ea5d850cdf75382199bf15e178ecf28ae13d01654b0c
p613
sVCity
p614
V\u671d\u9633
p615
sVSnsFlag
p616
I17
sVDisplayName
p617
g52
sVUniFriend
p618
I0
sVMemberCount
p619
I0
sVOwnerUin
p620
I0
sVMemberList
p621
g50
sVAlias
p622
g52
sVPYQuanPin
p623
VRuby
p624
sVSignature
p625
VBetter  me!
p626
sVRemarkPYInitial
p627
VRUBY
p628
sVContactFlag
p629
I1
sVUin
p630
I0
sVNickName
p631
VRuby
p632
sVAppAccountFlag
p633
I0
sVVerifyFlag
p634
I0
sVRemarkPYQuanPin
p635
VRuby
p636
sVHeadImgUrl
p637
V/cgi-bin/mmwebwx-bin/webwxgeticon?seq=619430741&username=@b831d34994a708dd87b3ea5d850cdf75382199bf15e178ecf28ae13d01654b0c&skey=@crypt_caef61c6_154db8e9b445df1765640541bb3f5c68
p638
sVKeyWord
p639
g52
sVProvince
p640
V\u5317\u4eac
p641
sVPYInitial
p642
VRUBY
p643
sVRemarkName
p644
VRuby
p645
sVStarFriend
p646
I0
sVSex
p647
I2
sVIsOwner
p648
I0
sVHideInputBarFlag
p649
I0
sVChatRoomId
p650
I0
sVEncryChatRoomId
p651
g52
sVAttrStatus
p652
I4197
sVStatues
p653
I0
stp654
Rp655
I1
bag34
(g38
g39
(dp656
VUserName
p657
V@c1ae1c9b3e6f97d730009fd70c9111f9f07c22cd45739366c68b16d70ce926c6
p658
sVCity
p659
V\u6d77\u6dc0
p660
sVSnsFlag
p661
I17
sVDisplayName
p662
g52
sVUniFriend
p663
I0
sVMemberCount
p664
I0
sVOwnerUin
p665
I0
sVMemberList
p666
g50
sVAlias
p667
g52
sVPYQuanPin
p668
VYOUMICHAO
p669
sVSignature
p670
V 
p671
sVRemarkPYInitial
p672
VYOUMICHAO3726688
p673
sVContactFlag
p674
I1
sVUin
p675
I0
sVNickName
p676
VYOUMICHAO
p677
sVAppAccountFlag
p678
I0
sVVerifyFlag
p679
I0
sVRemarkPYQuanPin
p680
VYOUMICHAO3726688
p681
sVHeadImgUrl
p682
V/cgi-bin/mmwebwx-bin/webwxgeticon?seq=619436157&username=@c1ae1c9b3e6f97d730009fd70c9111f9f07c22cd45739366c68b16d70ce926c6&skey=@crypt_caef61c6_154db8e9b445df1765640541bb3f5c68
p683
sVKeyWord
p684
g52
sVProvince
p685
V\u5317\u4eac
p686
sVPYInitial
p687
VYOUMICHAO
p688
sVRemarkName
p689
VYOUMICHAO 3726688
p690
sVStarFriend
p691
I0
sVSex
p692
I2
sVIsOwner
p693
I0
sVHideInputBarFlag
p694
I0
sVChatRoomId
p695
I0
sVEncryChatRoomId
p696
g52
sVAttrStatus
p697
I104485
sVStatues
p698
I0
stp699
Rp700
I1
bag34
(g38
g39
(dp701
VUserName
p702
V@923cd6b7c435c765f9b1a6a4f3a15218935925d5b05f91a8545e98d05ff03baa
p703
sVCity
p704
V\u6d77\u6dc0
p705
sVSnsFlag
p706
I1
sVDisplayName
p707
g52
sVUniFriend
p708
I0
sVMemberCount
p709
I0
sVOwnerUin
p710
I0
sVMemberList
p711
g50
sVAlias
p712
g52
sVPYQuanPin
p713
Vqiudaoyuzaiyangyong
p714
sVSignature
p715
V\u83ab\u6101\u524d\u8def\u65e0\u77e5\u5df1\uff0c\u5929\u4e0b\u8c01\u4eba\u4e0d\u8bc6\u541b
p716
sVRemarkPYInitial
p717
VQDYZYY3966192
p718
sVContactFlag
p719
I1
sVUin
p720
I0
sVNickName
p721
V\u79cb\u5200\u9c7c\u5728\u4ef0\u6cf3
p722
sVAppAccountFlag
p723
I0
sVVerifyFlag
p724
I0
sVRemarkPYQuanPin
p725
Vqiudaoyuzaiyangyong3966192
p726
sVHeadImgUrl
p727
V/cgi-bin/mmwebwx-bin/webwxgeticon?seq=619439151&username=@923cd6b7c435c765f9b1a6a4f3a15218935925d5b05f91a8545e98d05ff03baa&skey=@crypt_caef61c6_154db8e9b445df1765640541bb3f5c68
p728
sVKeyWord
p729
g52
sVProvince
p730
V\u5317\u4eac
p731
sVPYInitial
p732
VQDYZYY
p733
sVRemarkName
p734
V\u79cb\u5200\u9c7c\u5728\u4ef0\u6cf3 3966192
p735
sVStarFriend
p736
I0
sVSex
p737
I2
sVIsOwner
p738
I0
sVHideInputBarFlag
p739
I0
sVChatRoomId
p740
I0
sVEncryChatRoomId
p741
g52
sVAttrStatus
p742
I102501
sVStatues
p743
I0
stp744
Rp745
I1
bag34
(g38
g39
(dp746
VUserName
p747
V@3fa725e4143f9ea9171bd61cfec20f4a
p748
sVCity
p749
g52
sVSnsFlag
p750
I49
sVDisplayName
p751
g52
sVUniFriend
p752
I0
sVMemberCount
p753
I0
sVOwnerUin
p754
I0
sVMemberList
p755
g50
sVAlias
p756
g52
sVPYQuanPin
p757
Vyipimaxiaojie
p758
sVSignature
p759
V\u662f\u4e2a\u82f9\u679c
p760
sVRemarkPYInitial
p761
VYPMXJ4049754
p762
sVContactFlag
p763
I1
sVUin
p764
I0
sVNickName
p765
V\u4e00\u5339\u9a6c\u5c0f\u59d0\u3002
p766
sVAppAccountFlag
p767
I0
sVVerifyFlag
p768
I0
sVRemarkPYQuanPin
p769
Vyipimaxiaojie4049754
p770
sVHeadImgUrl
p771
V/cgi-bin/mmwebwx-bin/webwxgeticon?seq=620950076&username=@3fa725e4143f9ea9171bd61cfec20f4a&skey=@crypt_caef61c6_154db8e9b445df1765640541bb3f5c68
p772
sVKeyWord
p773
Vhan
p774
sVProvince
p775
VParis
p776
sVPYInitial
p777
VYPMXJ
p778
sVRemarkName
p779
V\u4e00\u5339\u9a6c\u5c0f\u59d0\u3002 4049754
p780
sVStarFriend
p781
I0
sVSex
p782
I2
sVIsOwner
p783
I0
sVHideInputBarFlag
p784
I0
sVChatRoomId
p785
I0
sVEncryChatRoomId
p786
g52
sVAttrStatus
p787
I101431
sVStatues
p788
I0
stp789
Rp790
I1
bag34
(g38
g39
(dp791
VUserName
p792
V@48aec53ba4098adc63b0add04c1fdfcfc17630aad77beb988ef38f165b3ebc2d
p793
sVCity
p794
V\u6d77\u6dc0
p795
sVSnsFlag
p796
I1
sVDisplayName
p797
g52
sVUniFriend
p798
I0
sVMemberCount
p799
I0
sVOwnerUin
p800
I0
sVMemberList
p801
g50
sVAlias
p802
g52
sVPYQuanPin
p803
Vxingganlaogangan
p804
sVSignature
p805
VI've got you in my sights
p806
sVRemarkPYInitial
p807
VXGLGG536133
p808
sVContactFlag
p809
I257
sVUin
p810
I0
sVNickName
p811
V\u6027\u611f\u8001\u7518\u7518
p812
sVAppAccountFlag
p813
I0
sVVerifyFlag
p814
I0
sVRemarkPYQuanPin
p815
Vxingganlaogangan536133
p816
sVHeadImgUrl
p817
V/cgi-bin/mmwebwx-bin/webwxgeticon?seq=619437918&username=@48aec53ba4098adc63b0add04c1fdfcfc17630aad77beb988ef38f165b3ebc2d&skey=@crypt_caef61c6_154db8e9b445df1765640541bb3f5c68
p818
sVKeyWord
p819
g52
sVProvince
p820
V\u5317\u4eac
p821
sVPYInitial
p822
VXGLGG
p823
sVRemarkName
p824
V\u6027\u611f\u8001\u7518\u7518 536133
p825
sVStarFriend
p826
I0
sVSex
p827
I2
sVIsOwner
p828
I0
sVHideInputBarFlag
p829
I0
sVChatRoomId
p830
I0
sVEncryChatRoomId
p831
g52
sVAttrStatus
p832
I233767
sVStatues
p833
I0
stp834
Rp835
I1
bag34
(g38
g39
(dp836
VUserName
p837
V@4f92d233726cef68d0d2bf07750861c3b6f93a0cddee88b806fbce4278408681
p838
sVCity
p839
g52
sVSnsFlag
p840
I49
sVDisplayName
p841
g52
sVUniFriend
p842
I0
sVMemberCount
p843
I0
sVOwnerUin
p844
I0
sVMemberList
p845
g50
sVAlias
p846
g52
sVPYQuanPin
p847
Vspanclassemojiemoji2728spanWordsworthspanclassemojiemoji2728spanZhou
p848
sVSignature
p849
V\u4ed6\u8bf4\u4f60\u4efb\u4f55\u4e3a\u4eba\u79f0\u9053\u7684\u7f8e\u4e3d\uff0c\u4e0d\u53ca\u4ed6\u7b2c\u4e00\u6b21\u9047\u89c1\u4f60
p850
sVRemarkPYInitial
p851
g52
sVContactFlag
p852
I3
sVUin
p853
I0
sVNickName
p854
V\u2728 Wordsworth \u2728 Zhou
p855
sVAppAccountFlag
p856
I0
sVVerifyFlag
p857
I0
sVRemarkPYQuanPin
p858
g52
sVHeadImgUrl
p859
V/cgi-bin/mmwebwx-bin/webwxgeticon?seq=619438708&username=@4f92d233726cef68d0d2bf07750861c3b6f93a0cddee88b806fbce4278408681&skey=@crypt_caef61c6_154db8e9b445df1765640541bb3f5c68
p860
sVKeyWord
p861
g52
sVProvince
p862
g52
sVPYInitial
p863
VSPANCLASSEMOJIEMOJI2728SPANWORDSWORTHSPANCLASSEMOJIEMOJI2728SPANZHOU
p864
sVRemarkName
p865
g52
sVStarFriend
p866
I0
sVSex
p867
I2
sVIsOwner
p868
I0
sVHideInputBarFlag
p869
I0
sVChatRoomId
p870
I0
sVEncryChatRoomId
p871
g52
sVAttrStatus
p872
I104487
sVStatues
p873
I0
stp874
Rp875
I1
bag34
(g38
g39
(dp876
VUserName
p877
V@6b78d31a2f6f6071a071d84e7d1ab1ae80ccd38131e9baa6406d72660ca524a2
p878
sVCity
p879
g52
sVSnsFlag
p880
I49
sVDisplayName
p881
g52
sVUniFriend
p882
I0
sVMemberCount
p883
I0
sVOwnerUin
p884
I0
sVMemberList
p885
g50
sVAlias
p886
g52
sVPYQuanPin
p887
Vdading
p888
sVSignature
p889
g52
sVRemarkPYInitial
p890
VDD536214
p891
sVContactFlag
p892
I1
sVUin
p893
I0
sVNickName
p894
V\u5927\u4e01
p895
sVAppAccountFlag
p896
I0
sVVerifyFlag
p897
I0
sVRemarkPYQuanPin
p898
Vdading536214
p899
sVHeadImgUrl
p900
V/cgi-bin/mmwebwx-bin/webwxgeticon?seq=620950949&username=@6b78d31a2f6f6071a071d84e7d1ab1ae80ccd38131e9baa6406d72660ca524a2&skey=@crypt_caef61c6_154db8e9b445df1765640541bb3f5c68
p901
sVKeyWord
p902
g52
sVProvince
p903
g52
sVPYInitial
p904
VDD
p905
sVRemarkName
p906
V\u5927\u4e01 536214
p907
sVStarFriend
p908
I0
sVSex
p909
I2
sVIsOwner
p910
I0
sVHideInputBarFlag
p911
I0
sVChatRoomId
p912
I0
sVEncryChatRoomId
p913
g52
sVAttrStatus
p914
I104485
sVStatues
p915
I0
stp916
Rp917
I1
bag34
(g38
g39
(dp918
VUserName
p919
V@4ef7bc3d35f456e3dd823381cadc954d3d5a0426d1ba9ce5efe359ff7e2293cc
p920
sVCity
p921
g52
sVSnsFlag
p922
I17
sVDisplayName
p923
g52
sVUniFriend
p924
I0
sVMemberCount
p925
I0
sVOwnerUin
p926
I0
sVMemberList
p927
g50
sVAlias
p928
g52
sVPYQuanPin
p929
Vzhaoziyi
p930
sVSignature
p931
V\u957f\u4e0d\u9ad8\u4e86\u5440
p932
sVRemarkPYInitial
p933
VZZY3734052
p934
sVContactFlag
p935
I3
sVUin
p936
I0
sVNickName
p937
V\u8d75\u5b50\u6ea2.
p938
sVAppAccountFlag
p939
I0
sVVerifyFlag
p940
I0
sVRemarkPYQuanPin
p941
Vzhaoziyi3734052
p942
sVHeadImgUrl
p943
V/cgi-bin/mmwebwx-bin/webwxgeticon?seq=619432731&username=@4ef7bc3d35f456e3dd823381cadc954d3d5a0426d1ba9ce5efe359ff7e2293cc&skey=@crypt_caef61c6_154db8e9b445df1765640541bb3f5c68
p944
sVKeyWord
p945
g52
sVProvince
p946
VSiem Reab
p947
sVPYInitial
p948
VZZY
p949
sVRemarkName
p950
V\u8d75\u5b50\u6ea2. 3734052
p951
sVStarFriend
p952
I0
sVSex
p953
I2
sVIsOwner
p954
I0
sVHideInputBarFlag
p955
I0
sVChatRoomId
p956
I0
sVEncryChatRoomId
p957
g52
sVAttrStatus
p958
I2147582821
sVStatues
p959
I0
stp960
Rp961
I1
bag34
(g38
g39
(dp962
VUserName
p963
V@2eb922aeb7691b5308402d53879adf59a4054e75aa717c9e59935498323b34de
p964
sVCity
p965
g52
sVSnsFlag
p966
I17
sVDisplayName
p967
g52
sVUniFriend
p968
I0
sVMemberCount
p969
I0
sVOwnerUin
p970
I0
sVMemberList
p971
g50
sVAlias
p972
g52
sVPYQuanPin
p973
Vxiyuren
p974
sVSignature
p975
V                                                      biu ~
p976
sVRemarkPYInitial
p977
VXYR558474
p978
sVContactFlag
p979
I1
sVUin
p980
I0
sVNickName
p981
V\u897f\u611a\u4eba
p982
sVAppAccountFlag
p983
I0
sVVerifyFlag
p984
I0
sVRemarkPYQuanPin
p985
Vxiyuren558474
p986
sVHeadImgUrl
p987
V/cgi-bin/mmwebwx-bin/webwxgeticon?seq=619430377&username=@2eb922aeb7691b5308402d53879adf59a4054e75aa717c9e59935498323b34de&skey=@crypt_caef61c6_154db8e9b445df1765640541bb3f5c68
p988
sVKeyWord
p989
g52
sVProvince
p990
g52
sVPYInitial
p991
VXYR
p992
sVRemarkName
p993
V\u897f\u611a\u4eba 558474
p994
sVStarFriend
p995
I0
sVSex
p996
I2
sVIsOwner
p997
I0
sVHideInputBarFlag
p998
I0
sVChatRoomId
p999
I0
sVEncryChatRoomId
p1000
g52
sVAttrStatus
p1001
I99111
sVStatues
p1002
I0
stp1003
Rp1004
I1
bag34
(g38
g39
(dp1005
VUserName
p1006
V@9e20b24d8732381a9f51c1fc21c1ef95aee4ae83790b5304cd60f2954db7a3af
p1007
sVCity
p1008
V\u897f\u5b81
p1009
sVSnsFlag
p1010
I49
sVDisplayName
p1011
g52
sVUniFriend
p1012
I0
sVMemberCount
p1013
I0
sVOwnerUin
p1014
I0
sVMemberList
p1015
g50
sVAlias
p1016
g52
sVPYQuanPin
p1017
Vculaccino
p1018
sVSignature
p1019
V\u5979\u7684\u4eba\u751f\u88ab\u5979\u865a\u5ea6\u4e86
p1020
sVRemarkPYInitial
p1021
VCULACCINO3634981
p1022
sVContactFlag
p1023
I3
sVUin
p1024
I0
sVNickName
p1025
Vculaccino
p1026
sVAppAccountFlag
p1027
I0
sVVerifyFlag
p1028
I0
sVRemarkPYQuanPin
p1029
Vculaccino3634981
p1030
sVHeadImgUrl
p1031
V/cgi-bin/mmwebwx-bin/webwxgeticon?seq=620950991&username=@9e20b24d8732381a9f51c1fc21c1ef95aee4ae83790b5304cd60f2954db7a3af&skey=@crypt_caef61c6_154db8e9b445df1765640541bb3f5c68
p1032
sVKeyWord
p1033
g52
sVProvince
p1034
V\u9752\u6d77
p1035
sVPYInitial
p1036
VCULACCINO
p1037
sVRemarkName
p1038
Vculaccino 3634981
p1039
sVStarFriend
p1040
I0
sVSex
p1041
I2
sVIsOwner
p1042
I0
sVHideInputBarFlag
p1043
I0
sVChatRoomId
p1044
I0
sVEncryChatRoomId
p1045
g52
sVAttrStatus
p1046
I98917
sVStatues
p1047
I0
stp1048
Rp1049
I1
bag34
(g38
g39
(dp1050
VUserName
p1051
V@ca1960d961a2755948da8521a4b03930842675c41dbf24b37510fe4da164a540
p1052
sVCity
p1053
g52
sVSnsFlag
p1054
I49
sVDisplayName
p1055
g52
sVUniFriend
p1056
I0
sVMemberCount
p1057
I0
sVOwnerUin
p1058
I0
sVMemberList
p1059
g50
sVAlias
p1060
g52
sVPYQuanPin
p1061
Vlcfighting
p1062
sVSignature
p1063
g52
sVRemarkPYInitial
p1064
VLCFIGHTING3820553
p1065
sVContactFlag
p1066
I1
sVUin
p1067
I0
sVNickName
p1068
Vlcfighting
p1069
sVAppAccountFlag
p1070
I0
sVVerifyFlag
p1071
I0
sVRemarkPYQuanPin
p1072
Vlcfighting3820553
p1073
sVHeadImgUrl
p1074
V/cgi-bin/mmwebwx-bin/webwxgeticon?seq=620951036&username=@ca1960d961a2755948da8521a4b03930842675c41dbf24b37510fe4da164a540&skey=@crypt_caef61c6_154db8e9b445df1765640541bb3f5c68
p1075
sVKeyWord
p1076
g52
sVProvince
p1077
VRoma
p1078
sVPYInitial
p1079
VLCFIGHTING
p1080
sVRemarkName
p1081
Vlcfighting_ 3820553
p1082
sVStarFriend
p1083
I0
sVSex
p1084
I2
sVIsOwner
p1085
I0
sVHideInputBarFlag
p1086
I0
sVChatRoomId
p1087
I0
sVEncryChatRoomId
p1088
g52
sVAttrStatus
p1089
I102437
sVStatues
p1090
I0
stp1091
Rp1092
I1
bag34
(g38
g39
(dp1093
VUserName
p1094
V@a95aaca5f18188b836c7137b12f153cbc2935c3a9b6de3bcc89b2f2b68c72930
p1095
sVCity
p1096
V\u6d77\u6dc0
p1097
sVSnsFlag
p1098
I49
sVDisplayName
p1099
g52
sVUniFriend
p1100
I0
sVMemberCount
p1101
I0
sVOwnerUin
p1102
I0
sVMemberList
p1103
g50
sVAlias
p1104
g52
sVPYQuanPin
p1105
VYamaspanclassemojiemoji1f33bspan
p1106
sVSignature
p1107
V\u000a\u000a\u000a\u000a\u000a\u000a\u000a\u6c5f\u6e56\u591c\u96e8\u5341\u5e74\u706f
p1108
sVRemarkPYInitial
p1109
VYAMASPANCLASSEMOJIEMOJI1F4A7SPAN659411
p1110
sVContactFlag
p1111
I3
sVUin
p1112
I0
sVNickName
p1113
VYama\U0001f33b
p1114
sVAppAccountFlag
p1115
I0
sVVerifyFlag
p1116
I0
sVRemarkPYQuanPin
p1117
VYamaspanclassemojiemoji1f4a7span659411
p1118
sVHeadImgUrl
p1119
V/cgi-bin/mmwebwx-bin/webwxgeticon?seq=619438013&username=@a95aaca5f18188b836c7137b12f153cbc2935c3a9b6de3bcc89b2f2b68c72930&skey=@crypt_caef61c6_154db8e9b445df1765640541bb3f5c68
p1120
sVKeyWord
p1121
g52
sVProvince
p1122
V\u5317\u4eac
p1123
sVPYInitial
p1124
VYAMASPANCLASSEMOJIEMOJI1F33BSPAN
p1125
sVRemarkName
p1126
VYama\U0001f4a7 659411
p1127
sVStarFriend
p1128
I0
sVSex
p1129
I2
sVIsOwner
p1130
I0
sVHideInputBarFlag
p1131
I0
sVChatRoomId
p1132
I0
sVEncryChatRoomId
p1133
g52
sVAttrStatus
p1134
I33659005
sVStatues
p1135
I0
stp1136
Rp1137
I1
bag34
(g38
g39
(dp1138
VUserName
p1139
V@e1fc062c5abde1ce45733cf174d9a619ef57e2ca8637a11e2b9aab1d71fc3320
p1140
sVCity
p1141
g52
sVSnsFlag
p1142
I17
sVDisplayName
p1143
g52
sVUniFriend
p1144
I0
sVMemberCount
p1145
I0
sVOwnerUin
p1146
I0
sVMemberList
p1147
g50
sVAlias
p1148
g52
sVPYQuanPin
p1149
Vxiexinyan
p1150
sVSignature
p1151
V\u65e0\u6302\u788d\u6545\uff0c\u65e0\u6709\u6050\u6016\uff0c\u8fdc\u79bb\u98a0\u5012\u68a6\u60f3\uff0c\u7a76\u7adf\u6d85\u69c3\u3002
p1152
sVRemarkPYInitial
p1153
VMHHZ558557
p1154
sVContactFlag
p1155
I1
sVUin
p1156
I0
sVNickName
p1157
V\u89e3\u6b46\u598d
p1158
sVAppAccountFlag
p1159
I0
sVVerifyFlag
p1160
I0
sVRemarkPYQuanPin
p1161
Vmeihuanhuazi558557
p1162
sVHeadImgUrl
p1163
V/cgi-bin/mmwebwx-bin/webwxgeticon?seq=620951568&username=@e1fc062c5abde1ce45733cf174d9a619ef57e2ca8637a11e2b9aab1d71fc3320&skey=@crypt_caef61c6_154db8e9b445df1765640541bb3f5c68
p1164
sVKeyWord
p1165
g52
sVProvince
p1166
g52
sVPYInitial
p1167
VXXY
p1168
sVRemarkName
p1169
V\u7f8e\u73af\u82b1\u5b50 558557
p1170
sVStarFriend
p1171
I0
sVSex
p1172
I2
sVIsOwner
p1173
I0
sVHideInputBarFlag
p1174
I0
sVChatRoomId
p1175
I0
sVEncryChatRoomId
p1176
g52
sVAttrStatus
p1177
I69605
sVStatues
p1178
I0
stp1179
Rp1180
I1
bag34
(g38
g39
(dp1181
VUserName
p1182
V@e18ed0fca9bb8d8f8692b5f18961f9e2a0490803614602f2f753d7db239c17f6
p1183
sVCity
p1184
g52
sVSnsFlag
p1185
I17
sVDisplayName
p1186
g52
sVUniFriend
p1187
I0
sVMemberCount
p1188
I0
sVOwnerUin
p1189
I0
sVMemberList
p1190
g50
sVAlias
p1191
g52
sVPYQuanPin
p1192
Vhuahuabushifafa
p1193
sVSignature
p1194
V\u51c4\u51c4\u590d\u51c4\u51c4\uff0c\u5ac1\u5a36\u4e0d\u987b\u557c
p1195
sVRemarkPYInitial
p1196
VHHBSFF4098792
p1197
sVContactFlag
p1198
I1
sVUin
p1199
I0
sVNickName
p1200
V\u82b1\u82b1\u4e0d\u662f\u53d1\u53d1
p1201
sVAppAccountFlag
p1202
I0
sVVerifyFlag
p1203
I0
sVRemarkPYQuanPin
p1204
Vhuahuabushifafa4098792
p1205
sVHeadImgUrl
p1206
V/cgi-bin/mmwebwx-bin/webwxgeticon?seq=619435756&username=@e18ed0fca9bb8d8f8692b5f18961f9e2a0490803614602f2f753d7db239c17f6&skey=@crypt_caef61c6_154db8e9b445df1765640541bb3f5c68
p1207
sVKeyWord
p1208
g52
sVProvince
p1209
V\u5317\u4eac
p1210
sVPYInitial
p1211
VHHBSFF
p1212
sVRemarkName
p1213
V\u82b1\u82b1\u4e0d\u662f\u53d1\u53d1 4098792
p1214
sVStarFriend
p1215
I0
sVSex
p1216
I2
sVIsOwner
p1217
I0
sVHideInputBarFlag
p1218
I0
sVChatRoomId
p1219
I0
sVEncryChatRoomId
p1220
g52
sVAttrStatus
p1221
I69799
sVStatues
p1222
I0
stp1223
Rp1224
I1
batp1225
Rp1226
I1
bsS'chatroomList'
p1227
g34
(g35
g36
(lp1228
tp1229
Rp1230
I1
bsS'nickName'
p1231
g73
sS'mpList'
p1232
g34
(g35
g36
(lp1233
g34
(citchat.storage.templates
MassivePlatform
p1234
g39
(dp1235
VUserName
p1236
V@505a38a7f23d60537b14549102bbeca5
p1237
sVCity
p1238
V\u676d\u5dde
p1239
sVSnsFlag
p1240
I0
sVDisplayName
p1241
g52
sVUniFriend
p1242
I0
sVMemberCount
p1243
I0
sVOwnerUin
p1244
I0
sVMemberList
p1245
g50
sVAlias
p1246
g52
sVPYQuanPin
p1247
VhiyizhouCP
p1248
sVSignature
p1249
V\u8c08\u573a7\u5929\u5206\u624b\u7684\u604b\u7231
p1250
sVRemarkPYInitial
p1251
g52
sVContactFlag
p1252
I3
sVUin
p1253
I0
sVNickName
p1254
Vhi\u4e00\u5468CP
p1255
sVAppAccountFlag
p1256
I0
sVVerifyFlag
p1257
I24
sVRemarkPYQuanPin
p1258
g52
sVHeadImgUrl
p1259
V/cgi-bin/mmwebwx-bin/webwxgeticon?seq=619432774&username=@505a38a7f23d60537b14549102bbeca5&skey=@crypt_caef61c6_154db8e9b445df1765640541bb3f5c68
p1260
sVKeyWord
p1261
Vgh_
p1262
sVProvince
p1263
V\u6d59\u6c5f
p1264
sVPYInitial
p1265
VHIYZCP
p1266
sVRemarkName
p1267
g52
sVStarFriend
p1268
I0
sVSex
p1269
I0
sVIsOwner
p1270
I0
sVHideInputBarFlag
p1271
I0
sVChatRoomId
p1272
I0
sVEncryChatRoomId
p1273
g52
sVAttrStatus
p1274
I0
sVStatues
p1275
I0
stp1276
Rp1277
I1
bag34
(g1234
g39
(dp1278
VUserName
p1279
V@bed4c315db9e5cb5a0d8fffc479ab359
p1280
sVCity
p1281
V\u6d77\u6dc0
p1282
sVSnsFlag
p1283
I0
sVDisplayName
p1284
g52
sVUniFriend
p1285
I0
sVMemberCount
p1286
I0
sVOwnerUin
p1287
I0
sVMemberList
p1288
g50
sVAlias
p1289
g52
sVPYQuanPin
p1290
Vxiaozhuduanzu
p1291
sVSignature
p1292
V\u8fd9\u91cc\u662f\u5c0f\u732a\u77ed\u79df\u7684\u5b98\u65b9\u8ba2\u9605\u53f7\u3002\u5c0f\u732a\u662f\u56fd\u5185\u5206\u4eab\u7ecf\u6d4e\u623f\u5c4b\u77ed\u79df\u9886\u57df\u5177\u6709\u4eba\u6c14\u7684\u4e92\u8054\u7f51\u516c\u53f8\uff0c\u4e3a\u65c5\u6e38\u3001\u6c42\u5b66\u3001\u6c42\u804c\u3001\u5c31\u533b\u3001\u805a\u4f1a\u3001\u51fa\u5dee\u7b49\u51fa\u884c\u4eba\u7fa4\u63d0\u4f9b\u66f4\u5177\u6027\u4ef7\u6bd4\u3001\u66f4\u6709\u5bb6\u5ead\u6c1b\u56f4\u3001\u4e14\u66f4\u6709\u4eba\u60c5\u5473\u7684\u4f4f\u5bbf\u9009\u62e9\u3002
p1293
sVRemarkPYInitial
p1294
g52
sVContactFlag
p1295
I3
sVUin
p1296
I0
sVNickName
p1297
V\u5c0f\u732a\u77ed\u79df
p1298
sVAppAccountFlag
p1299
I0
sVVerifyFlag
p1300
I24
sVRemarkPYQuanPin
p1301
g52
sVHeadImgUrl
p1302
V/cgi-bin/mmwebwx-bin/webwxgeticon?seq=619430597&username=@bed4c315db9e5cb5a0d8fffc479ab359&skey=@crypt_caef61c6_154db8e9b445df1765640541bb3f5c68
p1303
sVKeyWord
p1304
Vgh_
p1305
sVProvince
p1306
V\u5317\u4eac
p1307
sVPYInitial
p1308
VXZDZ
p1309
sVRemarkName
p1310
g52
sVStarFriend
p1311
I0
sVSex
p1312
I0
sVIsOwner
p1313
I0
sVHideInputBarFlag
p1314
I0
sVChatRoomId
p1315
I0
sVEncryChatRoomId
p1316
g52
sVAttrStatus
p1317
I0
sVStatues
p1318
I0
stp1319
Rp1320
I1
bag34
(g1234
g39
(dp1321
VUserName
p1322
V@1b3ca5438279d63417ce4df71639c9a6
p1323
sVCity
p1324
V\u6d77\u6dc0
p1325
sVSnsFlag
p1326
I0
sVDisplayName
p1327
g52
sVUniFriend
p1328
I0
sVMemberCount
p1329
I0
sVOwnerUin
p1330
I0
sVMemberList
p1331
g50
sVAlias
p1332
g52
sVPYQuanPin
p1333
Vcaolvchonghuwai
p1334
sVSignature
p1335
V\u8349\u5c65\u866b\u662f\u4e00\u4e2a\u9762\u5411\u5e74\u8f7b\u4eba\u7684\u65c5\u884c\u793e\u4ea4\u5e73\u53f0\uff0c\u5021\u5bfc\u5065\u5eb7\u3001\u79ef\u6781\u3001\u4e92\u52a9\u3001\u5206\u4eab\u7684\u751f\u6d3b\u7406\u5ff5\u3002\u5728\u65c5\u884c\u4e2d\uff0c\u5728\u751f\u6d3b\u4e2d\uff0c\u6d3b\u51fa\u5e74\u8f7b\u4eba\u5e94\u6709\u7684\u7cbe\u5f69\u548c\u6fc0\u60c5\uff0c\u91cd\u83b7\u6211\u4eec\u7684\u9752\u6625\u3001\u68a6\u60f3\u548c\u80fd\u91cf\uff0c\u5feb\u4e50\u65c5\u884c\u3001\u5feb\u4e50\u751f\u6d3b\u3002        \u5b98\u7f51\uff1awww.clctrip.com
p1336
sVRemarkPYInitial
p1337
g52
sVContactFlag
p1338
I3
sVUin
p1339
I0
sVNickName
p1340
V\u8349\u5c65\u866b\u6237\u5916
p1341
sVAppAccountFlag
p1342
I0
sVVerifyFlag
p1343
I24
sVRemarkPYQuanPin
p1344
g52
sVHeadImgUrl
p1345
V/cgi-bin/mmwebwx-bin/webwxgeticon?seq=619435284&username=@1b3ca5438279d63417ce4df71639c9a6&skey=@crypt_caef61c6_154db8e9b445df1765640541bb3f5c68
p1346
sVKeyWord
p1347
Vgh_
p1348
sVProvince
p1349
V\u5317\u4eac
p1350
sVPYInitial
p1351
VCLCHW
p1352
sVRemarkName
p1353
g52
sVStarFriend
p1354
I0
sVSex
p1355
I0
sVIsOwner
p1356
I0
sVHideInputBarFlag
p1357
I0
sVChatRoomId
p1358
I0
sVEncryChatRoomId
p1359
g52
sVAttrStatus
p1360
I0
sVStatues
p1361
I0
stp1362
Rp1363
I1
batp1364
Rp1365
I1
bssS'loginInfo'
p1366
(dp1367
S'SyncKey'
p1368
(dp1369
VCount
p1370
I8
sVList
p1371
(lp1372
(dp1373
VVal
p1374
I620951650
sVKey
p1375
I1
sa(dp1376
VVal
p1377
I620951790
sVKey
p1378
I2
sa(dp1379
VVal
p1380
I620951608
sVKey
p1381
I3
sa(dp1382
VVal
p1383
I620950001
sVKey
p1384
I11
sa(dp1385
VVal
p1386
I620950001
sVKey
p1387
I13
sa(dp1388
VVal
p1389
I1498151972
sVKey
p1390
I201
sa(dp1391
VVal
p1392
I1498144447
sVKey
p1393
I1000
sa(dp1394
VVal
p1395
I1498126711
sVKey
p1396
I1001
sassS'syncUrl'
p1397
S'https://webpush.wx2.qq.com/cgi-bin/mmwebwx-bin'
p1398
sS'skey'
p1399
V@crypt_caef61c6_154db8e9b445df1765640541bb3f5c68
p1400
sS'wxuin'
p1401
V3129380160
p1402
sS'synckey'
p1403
S'1_620951650|2_620951790|3_620951608|11_620950001|13_620950001|201_1498151972|1000_1498144447|1001_1498126711'
p1404
sS'url'
p1405
Vhttps://wx2.qq.com/cgi-bin/mmwebwx-bin
p1406
sS'pass_ticket'
p1407
VxZHCqRjNh30MkH527FakEDzLj6vn8031K90FZYlPMCEc5QQKTJWynED18KsD4EuK
p1408
sS'wxsid'
p1409
VENaZQqHypfM1HVyk
p1410
sS'InviteStartCount'
p1411
I40
sS'deviceid'
p1412
S'e695725981757215'
p1413
sS'fileUrl'
p1414
S'https://file.wx2.qq.com/cgi-bin/mmwebwx-bin'
p1415
sS'BaseRequest'
p1416
(dp1417
g54
g1402
sS'Skey'
p1418
g1400
sS'DeviceID'
p1419
g1408
sS'Sid'
p1420
g1410
ssS'User'
p1421
g34
(g38
g39
(dp1422
g41
g31
sg42
g43
sg44
g43
sg45
I0
sg47
g50
sg51
g52
sg53
g52
sg77
I0
sg55
I0
sg56
I0
sg57
g43
sg58
g43
sg59
g52
sg60
g52
sg61
I0
sg62
I0
sg63
I1
sg64
g43
sg65
I0
sg68
I0
sg66
I1
sg67
I0
sg46
I0
sg69
g43
sg70
g52
sg71
I0
sg72
g73
sg74
g52
sg75
g76
sg54
I3129380160
sg78
I0
sg79
I0
stp1423
Rp1424
I1
bss.